; Function Attrs: nounwind uwtable
define ptr @l_Lean_PrettyPrinter_Formatter_unicodeSymbolNoAntiquot_formatter___lambda__1___boxed(ptr noundef %0, ptr noundef %1, ptr noundef %2, ptr noundef %3, ptr noundef %4, ptr noundef %5) #0 {
  %7 = tail call ptr @l_Lean_Syntax_MonadTraverser_goLeft___at_Lean_PrettyPrinter_Formatter_visitArgs___spec__4___rarg(ptr noundef %2, ptr readnone poison, ptr readnone poison, ptr noundef %5)
  %8 = ptrtoint ptr %4 to i64
  %9 = and i64 %8, 1
  %.not = icmp eq i64 %9, 0
  br i1 %.not, label %10, label %lean_dec.exit15

10:                                               ; preds = %6
  %11 = load i32, ptr %4, align 4, !tbaa !8
  %12 = icmp sgt i32 %11, 1
  br i1 %12, label %13, label %15, !prof !11

13:                                               ; preds = %10
  %14 = add nsw i32 %11, -1
  store i32 %14, ptr %4, align 4, !tbaa !8
  br label %lean_dec.exit15

15:                                               ; preds = %10
  %.not.i = icmp eq i32 %11, 0
  br i1 %.not.i, label %lean_dec.exit15, label %16

16:                                               ; preds = %15
  tail call void @lean_dec_ref_cold(ptr noundef nonnull %4) #6
  br label %lean_dec.exit15

lean_dec.exit15:                                  ; preds = %16, %15, %13, %6
  %17 = ptrtoint ptr %3 to i64
  %18 = and i64 %17, 1
  %.not24 = icmp eq i64 %18, 0
  br i1 %.not24, label %19, label %lean_dec.exit14

19:                                               ; preds = %lean_dec.exit15
  %20 = load i32, ptr %3, align 4, !tbaa !8
  %21 = icmp sgt i32 %20, 1
  br i1 %21, label %22, label %24, !prof !11

22:                                               ; preds = %19
  %23 = add nsw i32 %20, -1
  store i32 %23, ptr %3, align 4, !tbaa !8
  br label %lean_dec.exit14

24:                                               ; preds = %19
  %.not.i16 = icmp eq i32 %20, 0
  br i1 %.not.i16, label %lean_dec.exit14, label %25

25:                                               ; preds = %24
  tail call void @lean_dec_ref_cold(ptr noundef nonnull %3) #6
  br label %lean_dec.exit14

lean_dec.exit14:                                  ; preds = %25, %24, %22, %lean_dec.exit15
  %26 = ptrtoint ptr %2 to i64
  %27 = and i64 %26, 1
  %.not25 = icmp eq i64 %27, 0
  br i1 %.not25, label %28, label %lean_dec.exit13

28:                                               ; preds = %lean_dec.exit14
  %29 = load i32, ptr %2, align 4, !tbaa !8
  %30 = icmp sgt i32 %29, 1
  br i1 %30, label %31, label %33, !prof !11

31:                                               ; preds = %28
  %32 = add nsw i32 %29, -1
  store i32 %32, ptr %2, align 4, !tbaa !8
  br label %lean_dec.exit13

33:                                               ; preds = %28
  %.not.i18 = icmp eq i32 %29, 0
  br i1 %.not.i18, label %lean_dec.exit13, label %34

34:                                               ; preds = %33
  tail call void @lean_dec_ref_cold(ptr noundef nonnull %2) #6
  br label %lean_dec.exit13

lean_dec.exit13:                                  ; preds = %34, %33, %31, %lean_dec.exit14
  %35 = ptrtoint ptr %1 to i64
  %36 = and i64 %35, 1
  %.not26 = icmp eq i64 %36, 0
  br i1 %.not26, label %37, label %lean_dec.exit12

37:                                               ; preds = %lean_dec.exit13
  %38 = load i32, ptr %1, align 4, !tbaa !8
  %39 = icmp sgt i32 %38, 1
  br i1 %39, label %40, label %42, !prof !11

40:                                               ; preds = %37
  %41 = add nsw i32 %38, -1
  store i32 %41, ptr %1, align 4, !tbaa !8
  br label %lean_dec.exit12

42:                                               ; preds = %37
  %.not.i20 = icmp eq i32 %38, 0
  br i1 %.not.i20, label %lean_dec.exit12, label %43

43:                                               ; preds = %42
  tail call void @lean_dec_ref_cold(ptr noundef nonnull %1) #6
  br label %lean_dec.exit12

lean_dec.exit12:                                  ; preds = %43, %42, %40, %lean_dec.exit13
  %44 = ptrtoint ptr %0 to i64
  %45 = and i64 %44, 1
  %.not27 = icmp eq i64 %45, 0
  br i1 %.not27, label %46, label %lean_dec.exit

46:                                               ; preds = %lean_dec.exit12
  %47 = load i32, ptr %0, align 4, !tbaa !8
  %48 = icmp sgt i32 %47, 1
  br i1 %48, label %49, label %51, !prof !11

49:                                               ; preds = %46
  %50 = add nsw i32 %47, -1
  store i32 %50, ptr %0, align 4, !tbaa !8
  br label %lean_dec.exit

51:                                               ; preds = %46
  %.not.i22 = icmp eq i32 %47, 0
  br i1 %.not.i22, label %lean_dec.exit, label %52

52:                                               ; preds = %51
  tail call void @lean_dec_ref_cold(ptr noundef nonnull %0) #6
  br label %lean_dec.exit

lean_dec.exit:                                    ; preds = %52, %51, %49, %lean_dec.exit12
  ret ptr %7
}